target datalayout = "e-m:e-p270:32:32-p271:32:32-p272:64:64-i64:64-i128:128-f80:128-n8:16:32:64-S128"
target triple = "x86_64-pc-linux-gnu"

%struct.Aig_Obj_t_ = type { %union.anon, ptr, ptr, i64, i32, i32, %union.anon.0 }
%union.anon = type { ptr }
%union.anon.0 = type { ptr }
%struct.Aig_Man_t_ = type { ptr, ptr, ptr, ptr, ptr, ptr, ptr, %struct.Aig_Obj_t_, i32, i32, i32, i32, i32, i32, [7 x i32], i32, ptr, i32, ptr, i32, ptr, i32, i32, i32, ptr, i32, i32, i32, i32, i32, ptr, ptr, i32, ptr, ptr, i32, ptr, ptr, i32, i32, i32, ptr, ptr, ptr, ptr, ptr, ptr, ptr, ptr, ptr, ptr, ptr, ptr, ptr, ptr, i32, ptr, ptr, ptr, ptr, i32, i64, i64, i64, ptr, ptr }
%struct.Vec_Ptr_t_ = type { i32, i32, ptr }

; Function Attrs: inlinehint nounwind uwtable
define internal i32 @Saig_SynchTernary(i32 noundef %0) #2 {
  %2 = alloca i32, align 4
  store i32 %0, ptr %2, align 4, !tbaa !10
  %3 = load i32, ptr %2, align 4, !tbaa !10
  %4 = icmp ne i32 %3, 0
  br i1 %4, label %5, label %9

5:                                                ; preds = %1
  %6 = load i32, ptr %2, align 4, !tbaa !10
  %7 = icmp eq i32 %6, 1
  %8 = select i1 %7, i32 1431655765, i32 -1
  br label %10

9:                                                ; preds = %1
  br label %10

10:                                               ; preds = %9, %5
  %11 = phi i32 [ %8, %5 ], [ 0, %9 ]
  ret i32 %11
}

; Function Attrs: inlinehint nounwind uwtable
define internal ptr @Vec_PtrEntry(ptr noundef %0, i32 noundef %1) #2 {
  %3 = alloca ptr, align 8
  %4 = alloca i32, align 4
  store ptr %0, ptr %3, align 8, !tbaa !8
  store i32 %1, ptr %4, align 4, !tbaa !10
  %5 = load ptr, ptr %3, align 8, !tbaa !8
  %6 = getelementptr inbounds nuw %struct.Vec_Ptr_t_, ptr %5, i32 0, i32 2
  %7 = load ptr, ptr %6, align 8, !tbaa !29
  %8 = load i32, ptr %4, align 4, !tbaa !10
  %9 = sext i32 %8 to i64
  %10 = getelementptr inbounds ptr, ptr %7, i64 %9
  %11 = load ptr, ptr %10, align 8, !tbaa !31
  ret ptr %11
}

; Function Attrs: inlinehint nounwind uwtable
define internal i32 @Saig_ManPiNum(ptr noundef %0) #2 {
  %2 = alloca ptr, align 8
  store ptr %0, ptr %2, align 8, !tbaa !3
  %3 = load ptr, ptr %2, align 8, !tbaa !3
  %4 = getelementptr inbounds nuw %struct.Aig_Man_t_, ptr %3, i32 0, i32 9
  %5 = load i32, ptr %4, align 4, !tbaa !36
  ret i32 %5
}

; Function Attrs: nounwind uwtable
define void @Saig_SynchInitPisGiven(ptr noundef %0, ptr noundef %1, i32 noundef %2, ptr noundef %3) #0 {
  %5 = alloca ptr, align 8
  %6 = alloca ptr, align 8
  %7 = alloca i32, align 4
  %8 = alloca ptr, align 8
  %9 = alloca ptr, align 8
  %10 = alloca ptr, align 8
  %11 = alloca i32, align 4
  %12 = alloca i32, align 4
  store ptr %0, ptr %5, align 8, !tbaa !3
  store ptr %1, ptr %6, align 8, !tbaa !8
  store i32 %2, ptr %7, align 4, !tbaa !10
  store ptr %3, ptr %8, align 8, !tbaa !41
  call void @llvm.lifetime.start.p0(i64 8, ptr %9) #10
  call void @llvm.lifetime.start.p0(i64 8, ptr %10) #10
  call void @llvm.lifetime.start.p0(i64 4, ptr %11) #10
  call void @llvm.lifetime.start.p0(i64 4, ptr %12) #10
  store i32 0, ptr %11, align 4, !tbaa !10
  br label %13

13:                                               ; preds = %52, %4
  %14 = load i32, ptr %11, align 4, !tbaa !10
  %15 = load ptr, ptr %5, align 8, !tbaa !3
  %16 = call i32 @Saig_ManPiNum(ptr noundef %15)
  %17 = icmp slt i32 %14, %16
  br i1 %17, label %18, label %24

18:                                               ; preds = %13
  %19 = load ptr, ptr %5, align 8, !tbaa !3
  %20 = getelementptr inbounds nuw %struct.Aig_Man_t_, ptr %19, i32 0, i32 2
  %21 = load ptr, ptr %20, align 8, !tbaa !32
  %22 = load i32, ptr %11, align 4, !tbaa !10
  %23 = call ptr @Vec_PtrEntry(ptr noundef %21, i32 noundef %22)
  store ptr %23, ptr %9, align 8, !tbaa !12
  br label %24

24:                                               ; preds = %18, %13
  %25 = phi i1 [ false, %13 ], [ true, %18 ]
  br i1 %25, label %26, label %55

26:                                               ; preds = %24
  %27 = load ptr, ptr %6, align 8, !tbaa !8
  %28 = load ptr, ptr %9, align 8, !tbaa !12
  %29 = getelementptr inbounds nuw %struct.Aig_Obj_t_, ptr %28, i32 0, i32 5
  %30 = load i32, ptr %29, align 4, !tbaa !14
  %31 = call ptr @Vec_PtrEntry(ptr noundef %27, i32 noundef %30)
  store ptr %31, ptr %10, align 8, !tbaa !16
  store i32 0, ptr %12, align 4, !tbaa !10
  br label %32

32:                                               ; preds = %48, %26
  %33 = load i32, ptr %12, align 4, !tbaa !10
  %34 = load i32, ptr %7, align 4, !tbaa !10
  %35 = icmp slt i32 %33, %34
  br i1 %35, label %36, label %51

36:                                               ; preds = %32
  %37 = load ptr, ptr %8, align 8, !tbaa !41
  %38 = load i32, ptr %11, align 4, !tbaa !10
  %39 = sext i32 %38 to i64
  %40 = getelementptr inbounds i8, ptr %37, i64 %39
  %41 = load i8, ptr %40, align 1, !tbaa !42
  %42 = sext i8 %41 to i32
  %43 = call i32 @Saig_SynchTernary(i32 noundef %42)
  %44 = load ptr, ptr %10, align 8, !tbaa !16
  %45 = load i32, ptr %12, align 4, !tbaa !10
  %46 = sext i32 %45 to i64
  %47 = getelementptr inbounds i32, ptr %44, i64 %46
  store i32 %43, ptr %47, align 4, !tbaa !10
  br label %48

48:                                               ; preds = %36
  %49 = load i32, ptr %12, align 4, !tbaa !10
  %50 = add nsw i32 %49, 1
  store i32 %50, ptr %12, align 4, !tbaa !10
  br label %32, !llvm.loop !43

51:                                               ; preds = %32
  br label %52

52:                                               ; preds = %51
  %53 = load i32, ptr %11, align 4, !tbaa !10
  %54 = add nsw i32 %53, 1
  store i32 %54, ptr %11, align 4, !tbaa !10
  br label %13, !llvm.loop !44

55:                                               ; preds = %24
  call void @llvm.lifetime.end.p0(i64 4, ptr %12) #10
  call void @llvm.lifetime.end.p0(i64 4, ptr %11) #10
  call void @llvm.lifetime.end.p0(i64 8, ptr %10) #10
  call void @llvm.lifetime.end.p0(i64 8, ptr %9) #10
  ret void
}