; Function Attrs: nofree norecurse nosync nounwind memory(readwrite, inaccessiblemem: none) uwtable
define void @Saig_SynchInitPisGiven(ptr noundef readonly captures(none) %0, ptr noundef readonly captures(none) %1, i32 noundef %2, ptr noundef readonly captures(none) %3) local_unnamed_addr #2 {
  %5 = getelementptr i8, ptr %0, i64 108
  %.val1517 = load i32, ptr %5, align 4, !tbaa !28
  %6 = icmp sgt i32 %.val1517, 0
  br i1 %6, label %.lr.ph20, label %.critedge

.lr.ph20:                                         ; preds = %4
  %7 = getelementptr inbounds nuw i8, ptr %0, i64 16
  %8 = load ptr, ptr %7, align 8, !tbaa !27
  %9 = getelementptr i8, ptr %8, i64 8
  %.val14 = load ptr, ptr %9, align 8, !tbaa !3
  %10 = getelementptr i8, ptr %1, i64 8
  %.val = load ptr, ptr %10, align 8, !tbaa !3
  %11 = icmp sgt i32 %2, 0
  br i1 %11, label %.lr.ph.us.preheader, label %.critedge

.lr.ph.us.preheader:                              ; preds = %.lr.ph20
  %wide.trip.count = zext nneg i32 %2 to i64
  br label %.lr.ph.us

.lr.ph.us:                                        ; preds = %.lr.ph.us.preheader, %._crit_edge.us
  %indvars.iv23 = phi i64 [ 0, %.lr.ph.us.preheader ], [ %indvars.iv.next24, %._crit_edge.us ]
  %12 = getelementptr inbounds nuw ptr, ptr %.val14, i64 %indvars.iv23
  %13 = load ptr, ptr %12, align 8, !tbaa !24
  %14 = getelementptr inbounds nuw i8, ptr %13, i64 36
  %15 = load i32, ptr %14, align 4, !tbaa !23
  %16 = sext i32 %15 to i64
  %17 = getelementptr inbounds ptr, ptr %.val, i64 %16
  %18 = load ptr, ptr %17, align 8, !tbaa !24
  %19 = getelementptr inbounds nuw i8, ptr %3, i64 %indvars.iv23
  br label %20

20:                                               ; preds = %.lr.ph.us, %20
  %indvars.iv = phi i64 [ 0, %.lr.ph.us ], [ %indvars.iv.next, %20 ]
  %21 = load i8, ptr %19, align 1, !tbaa !35
  %.not.i.us = icmp eq i8 %21, 0
  %22 = icmp eq i8 %21, 1
  %23 = select i1 %22, i32 1431655765, i32 -1
  %24 = select i1 %.not.i.us, i32 0, i32 %23
  %25 = getelementptr inbounds nuw i32, ptr %18, i64 %indvars.iv
  store i32 %24, ptr %25, align 4, !tbaa !25
  %indvars.iv.next = add nuw nsw i64 %indvars.iv, 1
  %exitcond.not = icmp eq i64 %indvars.iv.next, %wide.trip.count
  br i1 %exitcond.not, label %._crit_edge.us, label %20, !llvm.loop !36

._crit_edge.us:                                   ; preds = %20
  %indvars.iv.next24 = add nuw nsw i64 %indvars.iv23, 1
  %.val15.us = load i32, ptr %5, align 4, !tbaa !28
  %26 = sext i32 %.val15.us to i64
  %27 = icmp slt i64 %indvars.iv.next24, %26
  br i1 %27, label %.lr.ph.us, label %.critedge, !llvm.loop !37

.critedge:                                        ; preds = %._crit_edge.us, %.lr.ph20, %4
  ret void
}